; Function Attrs: mustprogress nofree norecurse nosync nounwind willreturn memory(argmem: readwrite) uwtable
define range(i32 -2147483648, 2147483647) i32 @Map_NodeDecRefPhaseAct(ptr noundef captures(none) %0, i32 noundef %1) local_unnamed_addr #1 {
  %3 = getelementptr inbounds nuw i8, ptr %0, i64 144
  %4 = load ptr, ptr %3, align 8, !tbaa !3
  %.not = icmp eq ptr %4, null
  br i1 %.not, label %14, label %5

5:                                                ; preds = %2
  %6 = getelementptr inbounds nuw i8, ptr %0, i64 152
  %7 = load ptr, ptr %6, align 8, !tbaa !3
  %.not5 = icmp eq ptr %7, null
  br i1 %.not5, label %14, label %8

8:                                                ; preds = %5
  %9 = getelementptr inbounds nuw i8, ptr %0, i64 32
  %10 = sext i32 %1 to i64
  %11 = getelementptr inbounds [3 x i32], ptr %9, i64 0, i64 %10
  %12 = load i32, ptr %11, align 4, !tbaa !8
  %13 = add nsw i32 %12, -1
  store i32 %13, ptr %11, align 4, !tbaa !8
  br label %18

14:                                               ; preds = %5, %2
  %15 = getelementptr inbounds nuw i8, ptr %0, i64 40
  %16 = load i32, ptr %15, align 8, !tbaa !8
  %17 = add nsw i32 %16, -1
  store i32 %17, ptr %15, align 8, !tbaa !8
  br label %18

18:                                               ; preds = %14, %8
  %.0 = phi i32 [ %13, %8 ], [ %17, %14 ]
  ret i32 %.0
}